target datalayout = "e-m:e-p270:32:32-p271:32:32-p272:64:64-i64:64-i128:128-f80:128-n8:16:32:64-S128"
target triple = "x86_64-pc-linux-gnu"

%"struct.cvc5::internal::theory::arith::linear::PrimitiveVec" = type { i32, ptr, ptr }
%"class.cvc5::internal::StreamFormatScope" = type { ptr, i32, i64 }
%"struct.std::_Setprecision" = type { i32 }
%"class.std::ios_base" = type { ptr, i64, i64, i32, i32, i32, ptr, %"struct.std::ios_base::_Words", [8 x %"struct.std::ios_base::_Words"], i32, ptr, %"class.std::locale" }
%"struct.std::ios_base::_Words" = type { ptr, i64 }
%"class.std::locale" = type { ptr }

@.str = private unnamed_addr constant [2 x i8] c" \00", align 1
@.str.1 = private unnamed_addr constant [2 x i8] c"[\00", align 1
@.str.2 = private unnamed_addr constant [3 x i8] c", \00", align 1
@.str.3 = private unnamed_addr constant [2 x i8] c"]\00", align 1

; Function Attrs: inlinehint mustprogress nounwind uwtable
define linkonce_odr noundef i32 @_ZStorSt12_Ios_IostateS_(i32 noundef %0, i32 noundef %1) #12 comdat {
  %3 = alloca i32, align 4
  %4 = alloca i32, align 4
  store i32 %0, ptr %3, align 4, !tbaa !592
  store i32 %1, ptr %4, align 4, !tbaa !592
  %5 = load i32, ptr %3, align 4, !tbaa !592
  %6 = load i32, ptr %4, align 4, !tbaa !592
  %7 = or i32 %5, %6
  ret i32 %7
}

; Function Attrs: mustprogress nounwind uwtable
define available_externally noundef i32 @_ZNKSt9basic_iosIcSt11char_traitsIcEE7rdstateEv(ptr noundef nonnull align 8 dereferenceable(264) %0) #4 align 2 {
  %2 = alloca ptr, align 8
  store ptr %0, ptr %2, align 8, !tbaa !570
  %3 = load ptr, ptr %2, align 8
  %4 = getelementptr inbounds nuw %"class.std::ios_base", ptr %3, i32 0, i32 5
  %5 = load i32, ptr %4, align 8, !tbaa !593
  ret i32 %5
}

; Function Attrs: mustprogress nounwind uwtable
define linkonce_odr hidden noundef i64 @_ZNSt8ios_base9precisionEl(ptr noundef nonnull align 8 dereferenceable(216) %0, i64 noundef %1) #4 comdat align 2 {
  %3 = alloca ptr, align 8
  %4 = alloca i64, align 8
  %5 = alloca i64, align 8
  store ptr %0, ptr %3, align 8, !tbaa !594
  store i64 %1, ptr %4, align 8, !tbaa !109
  %6 = load ptr, ptr %3, align 8
  call void @llvm.lifetime.start.p0(i64 8, ptr %5) #3
  %7 = getelementptr inbounds nuw %"class.std::ios_base", ptr %6, i32 0, i32 1
  %8 = load i64, ptr %7, align 8, !tbaa !605
  store i64 %8, ptr %5, align 8, !tbaa !109
  %9 = load i64, ptr %4, align 8, !tbaa !109
  %10 = getelementptr inbounds nuw %"class.std::ios_base", ptr %6, i32 0, i32 1
  store i64 %9, ptr %10, align 8, !tbaa !605
  %11 = load i64, ptr %5, align 8, !tbaa !109
  call void @llvm.lifetime.end.p0(i64 8, ptr %5) #3
  ret i64 %11
}

; Function Attrs: mustprogress nounwind uwtable
define linkonce_odr hidden noundef i64 @_ZNSt11char_traitsIcE6lengthEPKc(ptr noundef %0) #4 comdat align 2 {
  %2 = alloca ptr, align 8
  store ptr %0, ptr %2, align 8, !tbaa !61
  %3 = load ptr, ptr %2, align 8, !tbaa !61
  %4 = call i64 @strlen(ptr noundef %3) #3
  ret i64 %4
}

; Function Attrs: mustprogress uwtable
define available_externally void @_ZNSt9basic_iosIcSt11char_traitsIcEE8setstateESt12_Ios_Iostate(ptr noundef nonnull align 8 dereferenceable(264) %0, i32 noundef %1) #5 align 2 {
  %3 = alloca ptr, align 8
  %4 = alloca i32, align 4
  store ptr %0, ptr %3, align 8, !tbaa !570
  store i32 %1, ptr %4, align 4, !tbaa !592
  %5 = load ptr, ptr %3, align 8
  %6 = call noundef i32 @_ZNKSt9basic_iosIcSt11char_traitsIcEE7rdstateEv(ptr noundef nonnull align 8 dereferenceable(264) %5)
  %7 = load i32, ptr %4, align 4, !tbaa !592
  %8 = call noundef i32 @_ZStorSt12_Ios_IostateS_(i32 noundef %6, i32 noundef %7)
  call void @_ZNSt9basic_iosIcSt11char_traitsIcEE5clearESt12_Ios_Iostate(ptr noundef nonnull align 8 dereferenceable(264) %5, i32 noundef %8)
  ret void
}

; Function Attrs: mustprogress uwtable
define available_externally noundef nonnull align 8 dereferenceable(8) ptr @_ZNSolsEd(ptr noundef nonnull align 8 dereferenceable(8) %0, double noundef %1) #5 align 2 {
  %3 = alloca ptr, align 8
  %4 = alloca double, align 8
  store ptr %0, ptr %3, align 8, !tbaa !51
  store double %1, ptr %4, align 8, !tbaa !53
  %5 = load ptr, ptr %3, align 8
  %6 = load double, ptr %4, align 8, !tbaa !53
  %7 = call noundef nonnull align 8 dereferenceable(8) ptr @_ZNSo9_M_insertIdEERSoT_(ptr noundef nonnull align 8 dereferenceable(8) %5, double noundef %6)
  ret ptr %7
}

; Function Attrs: inlinehint mustprogress uwtable
define available_externally noundef nonnull align 8 dereferenceable(8) ptr @_ZStlsIcSt11char_traitsIcEERSt13basic_ostreamIT_T0_ES6_St13_Setprecision(ptr noundef nonnull align 8 dereferenceable(8) %0, i32 %1) #11 {
  %3 = alloca %"struct.std::_Setprecision", align 4
  %4 = alloca ptr, align 8
  %5 = getelementptr inbounds nuw %"struct.std::_Setprecision", ptr %3, i32 0, i32 0
  store i32 %1, ptr %5, align 4
  store ptr %0, ptr %4, align 8, !tbaa !51
  %6 = load ptr, ptr %4, align 8, !tbaa !51
  %7 = load ptr, ptr %6, align 8, !tbaa !57
  %8 = getelementptr i8, ptr %7, i64 -24
  %9 = load i64, ptr %8, align 8
  %10 = getelementptr inbounds i8, ptr %6, i64 %9
  %11 = getelementptr inbounds nuw %"struct.std::_Setprecision", ptr %3, i32 0, i32 0
  %12 = load i32, ptr %11, align 4, !tbaa !59
  %13 = sext i32 %12 to i64
  %14 = call noundef i64 @_ZNSt8ios_base9precisionEl(ptr noundef nonnull align 8 dereferenceable(216) %10, i64 noundef %13)
  %15 = load ptr, ptr %4, align 8, !tbaa !51
  ret ptr %15
}

; Function Attrs: inlinehint mustprogress nounwind uwtable
define linkonce_odr i32 @_ZSt12setprecisioni(i32 noundef %0) #12 comdat {
  %2 = alloca %"struct.std::_Setprecision", align 4
  %3 = alloca i32, align 4
  store i32 %0, ptr %3, align 4, !tbaa !12
  %4 = getelementptr inbounds nuw %"struct.std::_Setprecision", ptr %2, i32 0, i32 0
  %5 = load i32, ptr %3, align 4, !tbaa !12
  store i32 %5, ptr %4, align 4, !tbaa !59
  %6 = getelementptr inbounds nuw %"struct.std::_Setprecision", ptr %2, i32 0, i32 0
  %7 = load i32, ptr %6, align 4
  ret i32 %7
}

; Function Attrs: inlinehint mustprogress uwtable
define available_externally noundef nonnull align 8 dereferenceable(8) ptr @_ZStlsISt11char_traitsIcEERSt13basic_ostreamIcT_ES5_PKc(ptr noundef nonnull align 8 dereferenceable(8) %0, ptr noundef %1) #11 {
  %3 = alloca ptr, align 8
  %4 = alloca ptr, align 8
  store ptr %0, ptr %3, align 8, !tbaa !51
  store ptr %1, ptr %4, align 8, !tbaa !61
  %5 = load ptr, ptr %4, align 8, !tbaa !61
  %6 = icmp ne ptr %5, null
  br i1 %6, label %13, label %7

7:                                                ; preds = %2
  %8 = load ptr, ptr %3, align 8, !tbaa !51
  %9 = load ptr, ptr %8, align 8, !tbaa !57
  %10 = getelementptr i8, ptr %9, i64 -24
  %11 = load i64, ptr %10, align 8
  %12 = getelementptr inbounds i8, ptr %8, i64 %11
  call void @_ZNSt9basic_iosIcSt11char_traitsIcEE8setstateESt12_Ios_Iostate(ptr noundef nonnull align 8 dereferenceable(264) %12, i32 noundef 1)
  br label %19

13:                                               ; preds = %2
  %14 = load ptr, ptr %3, align 8, !tbaa !51
  %15 = load ptr, ptr %4, align 8, !tbaa !61
  %16 = load ptr, ptr %4, align 8, !tbaa !61
  %17 = call noundef i64 @_ZNSt11char_traitsIcE6lengthEPKc(ptr noundef %16)
  %18 = call noundef nonnull align 8 dereferenceable(8) ptr @_ZSt16__ostream_insertIcSt11char_traitsIcEERSt13basic_ostreamIT_T0_ES6_PKS3_l(ptr noundef nonnull align 8 dereferenceable(8) %14, ptr noundef %15, i64 noundef %17)
  br label %19

19:                                               ; preds = %13, %7
  %20 = load ptr, ptr %3, align 8, !tbaa !51
  ret ptr %20
}

; Function Attrs: mustprogress uwtable
define hidden void @_ZNK4cvc58internal6theory5arith6linear12PrimitiveVec5printERSo(ptr noundef nonnull align 8 dereferenceable(24) %0, ptr noundef nonnull align 8 dereferenceable(8) %1) #5 align 2 personality ptr @__gxx_personality_v0 {
  %3 = alloca ptr, align 8
  %4 = alloca ptr, align 8
  %5 = alloca %"class.cvc5::internal::StreamFormatScope", align 8
  %6 = alloca ptr, align 8
  %7 = alloca i32, align 4
  %8 = alloca %"struct.std::_Setprecision", align 4
  %9 = alloca i32, align 4
  store ptr %0, ptr %3, align 8, !tbaa !44
  store ptr %1, ptr %4, align 8, !tbaa !51
  %10 = load ptr, ptr %3, align 8
  call void @llvm.lifetime.start.p0(i64 24, ptr %5) #3
  %11 = load ptr, ptr %4, align 8, !tbaa !51
  call void @_ZN4cvc58internal17StreamFormatScopeC1ERSo(ptr noundef nonnull align 8 dereferenceable(24) %5, ptr noundef nonnull align 8 dereferenceable(8) %11)
  %12 = load ptr, ptr %4, align 8, !tbaa !51
  %13 = getelementptr inbounds nuw %"struct.cvc5::internal::theory::arith::linear::PrimitiveVec", ptr %10, i32 0, i32 0
  %14 = load i32, ptr %13, align 8, !tbaa !46
  %15 = invoke noundef nonnull align 8 dereferenceable(8) ptr @_ZNSolsEi(ptr noundef nonnull align 8 dereferenceable(8) %12, i32 noundef %14)
          to label %16 unwind label %32

16:                                               ; preds = %2
  %17 = invoke noundef nonnull align 8 dereferenceable(8) ptr @_ZStlsISt11char_traitsIcEERSt13basic_ostreamIcT_ES5_PKc(ptr noundef nonnull align 8 dereferenceable(8) %15, ptr noundef @.str)
          to label %18 unwind label %32

18:                                               ; preds = %16
  %19 = invoke i32 @_ZSt12setprecisioni(i32 noundef 15)
          to label %20 unwind label %32

20:                                               ; preds = %18
  %21 = getelementptr inbounds nuw %"struct.std::_Setprecision", ptr %8, i32 0, i32 0
  store i32 %19, ptr %21, align 4
  %22 = getelementptr inbounds nuw %"struct.std::_Setprecision", ptr %8, i32 0, i32 0
  %23 = load i32, ptr %22, align 4
  %24 = invoke noundef nonnull align 8 dereferenceable(8) ptr @_ZStlsIcSt11char_traitsIcEERSt13basic_ostreamIT_T0_ES6_St13_Setprecision(ptr noundef nonnull align 8 dereferenceable(8) %17, i32 %23)
          to label %25 unwind label %32

25:                                               ; preds = %20
  call void @llvm.lifetime.start.p0(i64 4, ptr %9) #3
  store i32 1, ptr %9, align 4, !tbaa !12
  br label %26

26:                                               ; preds = %60, %25
  %27 = load i32, ptr %9, align 4, !tbaa !12
  %28 = getelementptr inbounds nuw %"struct.cvc5::internal::theory::arith::linear::PrimitiveVec", ptr %10, i32 0, i32 0
  %29 = load i32, ptr %28, align 8, !tbaa !46
  %30 = icmp sle i32 %27, %29
  br i1 %30, label %36, label %31

31:                                               ; preds = %26
  call void @llvm.lifetime.end.p0(i64 4, ptr %9) #3
  br label %67

32:                                               ; preds = %20, %18, %16, %2
  %33 = landingpad { ptr, i32 }
          cleanup
  %34 = extractvalue { ptr, i32 } %33, 0
  store ptr %34, ptr %6, align 8
  %35 = extractvalue { ptr, i32 } %33, 1
  store i32 %35, ptr %7, align 4
  br label %68

36:                                               ; preds = %26
  %37 = load ptr, ptr %4, align 8, !tbaa !51
  %38 = invoke noundef nonnull align 8 dereferenceable(8) ptr @_ZStlsISt11char_traitsIcEERSt13basic_ostreamIcT_ES5_PKc(ptr noundef nonnull align 8 dereferenceable(8) %37, ptr noundef @.str.1)
          to label %39 unwind label %63

39:                                               ; preds = %36
  %40 = getelementptr inbounds nuw %"struct.cvc5::internal::theory::arith::linear::PrimitiveVec", ptr %10, i32 0, i32 1
  %41 = load ptr, ptr %40, align 8, !tbaa !49
  %42 = load i32, ptr %9, align 4, !tbaa !12
  %43 = sext i32 %42 to i64
  %44 = getelementptr inbounds i32, ptr %41, i64 %43
  %45 = load i32, ptr %44, align 4, !tbaa !12
  %46 = invoke noundef nonnull align 8 dereferenceable(8) ptr @_ZNSolsEi(ptr noundef nonnull align 8 dereferenceable(8) %38, i32 noundef %45)
          to label %47 unwind label %63

47:                                               ; preds = %39
  %48 = invoke noundef nonnull align 8 dereferenceable(8) ptr @_ZStlsISt11char_traitsIcEERSt13basic_ostreamIcT_ES5_PKc(ptr noundef nonnull align 8 dereferenceable(8) %46, ptr noundef @.str.2)
          to label %49 unwind label %63

49:                                               ; preds = %47
  %50 = getelementptr inbounds nuw %"struct.cvc5::internal::theory::arith::linear::PrimitiveVec", ptr %10, i32 0, i32 2
  %51 = load ptr, ptr %50, align 8, !tbaa !50
  %52 = load i32, ptr %9, align 4, !tbaa !12
  %53 = sext i32 %52 to i64
  %54 = getelementptr inbounds double, ptr %51, i64 %53
  %55 = load double, ptr %54, align 8, !tbaa !53
  %56 = invoke noundef nonnull align 8 dereferenceable(8) ptr @_ZNSolsEd(ptr noundef nonnull align 8 dereferenceable(8) %48, double noundef %55)
          to label %57 unwind label %63

57:                                               ; preds = %49
  %58 = invoke noundef nonnull align 8 dereferenceable(8) ptr @_ZStlsISt11char_traitsIcEERSt13basic_ostreamIcT_ES5_PKc(ptr noundef nonnull align 8 dereferenceable(8) %56, ptr noundef @.str.3)
          to label %59 unwind label %63

59:                                               ; preds = %57
  br label %60

60:                                               ; preds = %59
  %61 = load i32, ptr %9, align 4, !tbaa !12
  %62 = add nsw i32 %61, 1
  store i32 %62, ptr %9, align 4, !tbaa !12
  br label %26, !llvm.loop !55

63:                                               ; preds = %57, %49, %47, %39, %36
  %64 = landingpad { ptr, i32 }
          cleanup
  %65 = extractvalue { ptr, i32 } %64, 0
  store ptr %65, ptr %6, align 8
  %66 = extractvalue { ptr, i32 } %64, 1
  store i32 %66, ptr %7, align 4
  call void @llvm.lifetime.end.p0(i64 4, ptr %9) #3
  br label %68

67:                                               ; preds = %31
  call void @_ZN4cvc58internal17StreamFormatScopeD1Ev(ptr noundef nonnull align 8 dereferenceable(24) %5) #3
  call void @llvm.lifetime.end.p0(i64 24, ptr %5) #3
  ret void

68:                                               ; preds = %63, %32
  call void @_ZN4cvc58internal17StreamFormatScopeD1Ev(ptr noundef nonnull align 8 dereferenceable(24) %5) #3
  call void @llvm.lifetime.end.p0(i64 24, ptr %5) #3
  br label %69

69:                                               ; preds = %68
  %70 = load ptr, ptr %6, align 8
  %71 = load i32, ptr %7, align 4
  %72 = insertvalue { ptr, i32 } poison, ptr %70, 0
  %73 = insertvalue { ptr, i32 } %72, i32 %71, 1
  resume { ptr, i32 } %73
}