; Function Attrs: mustprogress uwtable
define hidden void @_ZNK4cvc58internal6theory5arith6linear12PrimitiveVec5printERSo(ptr noundef nonnull readonly align 8 captures(none) dereferenceable(24) %0, ptr noundef nonnull align 8 dereferenceable(8) %1) local_unnamed_addr #13 align 2 personality ptr @__gxx_personality_v0 {
  %3 = alloca %"class.cvc5::internal::StreamFormatScope", align 8
  call void @llvm.lifetime.start.p0(i64 24, ptr nonnull %3) #27
  call void @_ZN4cvc58internal17StreamFormatScopeC1ERSo(ptr noundef nonnull align 8 dereferenceable(24) %3, ptr noundef nonnull align 8 dereferenceable(8) %1)
  %4 = load i32, ptr %0, align 8, !tbaa !36
  %5 = invoke noundef nonnull align 8 dereferenceable(8) ptr @_ZNSolsEi(ptr noundef nonnull align 8 dereferenceable(8) %1, i32 noundef %4)
          to label %6 unwind label %16

6:                                                ; preds = %2
  %7 = invoke noundef nonnull align 8 dereferenceable(8) ptr @_ZSt16__ostream_insertIcSt11char_traitsIcEERSt13basic_ostreamIT_T0_ES6_PKS3_l(ptr noundef nonnull align 8 dereferenceable(8) %5, ptr noundef nonnull @.str, i64 noundef 1)
          to label %_ZStlsISt11char_traitsIcEERSt13basic_ostreamIcT_ES5_PKc.exit unwind label %16

_ZStlsISt11char_traitsIcEERSt13basic_ostreamIcT_ES5_PKc.exit: ; preds = %6
  %8 = load ptr, ptr %5, align 8, !tbaa !41
  %9 = getelementptr i8, ptr %8, i64 -24
  %10 = load i64, ptr %9, align 8
  %11 = getelementptr inbounds i8, ptr %5, i64 %10
  %12 = getelementptr inbounds nuw i8, ptr %11, i64 8
  store i64 15, ptr %12, align 8, !tbaa !43
  %13 = load i32, ptr %0, align 8, !tbaa !36
  %.not15 = icmp slt i32 %13, 1
  br i1 %.not15, label %._crit_edge, label %.lr.ph

.lr.ph:                                           ; preds = %_ZStlsISt11char_traitsIcEERSt13basic_ostreamIcT_ES5_PKc.exit
  %14 = getelementptr inbounds nuw i8, ptr %0, i64 8
  %15 = getelementptr inbounds nuw i8, ptr %0, i64 16
  br label %18

._crit_edge:                                      ; preds = %_ZStlsISt11char_traitsIcEERSt13basic_ostreamIcT_ES5_PKc.exit14, %_ZStlsISt11char_traitsIcEERSt13basic_ostreamIcT_ES5_PKc.exit
  call void @_ZN4cvc58internal17StreamFormatScopeD1Ev(ptr noundef nonnull align 8 dereferenceable(24) %3) #27
  call void @llvm.lifetime.end.p0(i64 24, ptr nonnull %3) #27
  ret void

16:                                               ; preds = %6, %2
  %17 = landingpad { ptr, i32 }
          cleanup
  br label %35

18:                                               ; preds = %.lr.ph, %_ZStlsISt11char_traitsIcEERSt13basic_ostreamIcT_ES5_PKc.exit14
  %indvars.iv = phi i64 [ 1, %.lr.ph ], [ %indvars.iv.next, %_ZStlsISt11char_traitsIcEERSt13basic_ostreamIcT_ES5_PKc.exit14 ]
  %19 = invoke noundef nonnull align 8 dereferenceable(8) ptr @_ZSt16__ostream_insertIcSt11char_traitsIcEERSt13basic_ostreamIT_T0_ES6_PKS3_l(ptr noundef nonnull align 8 dereferenceable(8) %1, ptr noundef nonnull @.str.1, i64 noundef 1)
          to label %_ZStlsISt11char_traitsIcEERSt13basic_ostreamIcT_ES5_PKc.exit12 unwind label %33

_ZStlsISt11char_traitsIcEERSt13basic_ostreamIcT_ES5_PKc.exit12: ; preds = %18
  %20 = load ptr, ptr %14, align 8, !tbaa !39
  %21 = getelementptr inbounds nuw i32, ptr %20, i64 %indvars.iv
  %22 = load i32, ptr %21, align 4, !tbaa !13
  %23 = invoke noundef nonnull align 8 dereferenceable(8) ptr @_ZNSolsEi(ptr noundef nonnull align 8 dereferenceable(8) %1, i32 noundef %22)
          to label %24 unwind label %33

24:                                               ; preds = %_ZStlsISt11char_traitsIcEERSt13basic_ostreamIcT_ES5_PKc.exit12
  %25 = invoke noundef nonnull align 8 dereferenceable(8) ptr @_ZSt16__ostream_insertIcSt11char_traitsIcEERSt13basic_ostreamIT_T0_ES6_PKS3_l(ptr noundef nonnull align 8 dereferenceable(8) %23, ptr noundef nonnull @.str.2, i64 noundef 2)
          to label %_ZStlsISt11char_traitsIcEERSt13basic_ostreamIcT_ES5_PKc.exit13 unwind label %33

_ZStlsISt11char_traitsIcEERSt13basic_ostreamIcT_ES5_PKc.exit13: ; preds = %24
  %26 = load ptr, ptr %15, align 8, !tbaa !40
  %27 = getelementptr inbounds nuw double, ptr %26, i64 %indvars.iv
  %28 = load double, ptr %27, align 8, !tbaa !52
  %29 = invoke noundef nonnull align 8 dereferenceable(8) ptr @_ZNSo9_M_insertIdEERSoT_(ptr noundef nonnull align 8 dereferenceable(8) %23, double noundef %28)
          to label %_ZNSolsEd.exit unwind label %33

_ZNSolsEd.exit:                                   ; preds = %_ZStlsISt11char_traitsIcEERSt13basic_ostreamIcT_ES5_PKc.exit13
  %30 = invoke noundef nonnull align 8 dereferenceable(8) ptr @_ZSt16__ostream_insertIcSt11char_traitsIcEERSt13basic_ostreamIT_T0_ES6_PKS3_l(ptr noundef nonnull align 8 dereferenceable(8) %29, ptr noundef nonnull @.str.3, i64 noundef 1)
          to label %_ZStlsISt11char_traitsIcEERSt13basic_ostreamIcT_ES5_PKc.exit14 unwind label %33

_ZStlsISt11char_traitsIcEERSt13basic_ostreamIcT_ES5_PKc.exit14: ; preds = %_ZNSolsEd.exit
  %indvars.iv.next = add nuw nsw i64 %indvars.iv, 1
  %31 = load i32, ptr %0, align 8, !tbaa !36
  %32 = sext i32 %31 to i64
  %.not.not = icmp slt i64 %indvars.iv, %32
  br i1 %.not.not, label %18, label %._crit_edge, !llvm.loop !54

33:                                               ; preds = %_ZNSolsEd.exit, %_ZStlsISt11char_traitsIcEERSt13basic_ostreamIcT_ES5_PKc.exit13, %24, %18, %_ZStlsISt11char_traitsIcEERSt13basic_ostreamIcT_ES5_PKc.exit12
  %34 = landingpad { ptr, i32 }
          cleanup
  br label %35

35:                                               ; preds = %33, %16
  %.pn = phi { ptr, i32 } [ %34, %33 ], [ %17, %16 ]
  call void @_ZN4cvc58internal17StreamFormatScopeD1Ev(ptr noundef nonnull align 8 dereferenceable(24) %3) #27
  call void @llvm.lifetime.end.p0(i64 24, ptr nonnull %3) #27
  resume { ptr, i32 } %.pn
}